; Function Attrs: nounwind uwtable
define void @smart_str_realloc(ptr nocapture noundef %0, i64 noundef %1) local_unnamed_addr #0 {
  %3 = load ptr, ptr %0, align 8
  %.not = icmp eq ptr %3, null
  %4 = add i64 %1, 4120
  %5 = and i64 %4, -4096
  %6 = add i64 %5, -25
  br i1 %.not, label %7, label %15

7:                                                ; preds = %2
  %.inv = icmp ugt i64 %1, 231
  %8 = select i1 %.inv, i64 %6, i64 231
  %9 = getelementptr inbounds i8, ptr %0, i64 8
  store i64 %8, ptr %9, align 8
  %10 = and i64 %8, -32
  %11 = add i64 %10, 32
  %12 = tail call noalias ptr @__zend_malloc(i64 noundef %11) #10
  store i32 1, ptr %12, align 4
  %13 = getelementptr inbounds i8, ptr %12, i64 4
  store i32 150, ptr %13, align 4
  %14 = getelementptr inbounds i8, ptr %12, i64 8
  tail call void @llvm.memset.p0.i64(ptr noundef nonnull align 8 dereferenceable(16) %14, i8 0, i64 16, i1 false)
  br label %18

15:                                               ; preds = %2
  %16 = getelementptr inbounds i8, ptr %0, i64 8
  store i64 %6, ptr %16, align 8
  %17 = tail call ptr @__zend_realloc(ptr noundef nonnull %3, i64 noundef %5) #11
  br label %18

18:                                               ; preds = %15, %7
  %.sink = phi ptr [ %12, %7 ], [ %17, %15 ]
  store ptr %.sink, ptr %0, align 8
  ret void
}